target datalayout = "e-m:e-p270:32:32-p271:32:32-p272:64:64-i64:64-i128:128-f80:128-n8:16:32:64-S128"
target triple = "x86_64-pc-linux-gnu"

%"struct.Luau::CodeGen::BuiltinImplResult" = type { i32, i32 }
%"struct.Luau::CodeGen::IrOp" = type { i32 }

; Function Attrs: mustprogress uwtable
define internal i32 @_ZN4Luau7CodeGenL17builtinLoadDoubleERNS0_9IrBuilderENS0_4IrOpE(ptr noundef nonnull align 8 dereferenceable(752) %0, i32 %1) #2 {
  %3 = alloca %"struct.Luau::CodeGen::IrOp", align 4
  %4 = alloca %"struct.Luau::CodeGen::IrOp", align 4
  %5 = alloca ptr, align 8
  %6 = alloca %"struct.Luau::CodeGen::IrOp", align 4
  %7 = getelementptr inbounds nuw %"struct.Luau::CodeGen::IrOp", ptr %4, i32 0, i32 0
  store i32 %1, ptr %7, align 4
  store ptr %0, ptr %5, align 8, !tbaa !20
  %8 = load i32, ptr %4, align 4
  %9 = and i32 %8, 15
  %10 = icmp eq i32 %9, 2
  br i1 %10, label %11, label %12

11:                                               ; preds = %2
  call void @llvm.memcpy.p0.p0.i64(ptr align 4 %3, ptr align 4 %4, i64 4, i1 false), !tbaa.struct !28
  br label %18

12:                                               ; preds = %2
  %13 = load ptr, ptr %5, align 8, !tbaa !20
  call void @llvm.memcpy.p0.p0.i64(ptr align 4 %6, ptr align 4 %4, i64 4, i1 false), !tbaa.struct !28
  %14 = getelementptr inbounds nuw %"struct.Luau::CodeGen::IrOp", ptr %6, i32 0, i32 0
  %15 = load i32, ptr %14, align 4
  %16 = call i32 @_ZN4Luau7CodeGen9IrBuilder4instENS0_5IrCmdENS0_4IrOpE(ptr noundef nonnull align 8 dereferenceable(752) %13, i8 noundef zeroext 3, i32 %15)
  %17 = getelementptr inbounds nuw %"struct.Luau::CodeGen::IrOp", ptr %3, i32 0, i32 0
  store i32 %16, ptr %17, align 4
  br label %18

18:                                               ; preds = %12, %11
  %19 = getelementptr inbounds nuw %"struct.Luau::CodeGen::IrOp", ptr %3, i32 0, i32 0
  %20 = load i32, ptr %19, align 4
  ret i32 %20
}

; Function Attrs: mustprogress uwtable
define internal void @_ZN4Luau7CodeGenL18builtinCheckDoubleERNS0_9IrBuilderENS0_4IrOpEi(ptr noundef nonnull align 8 dereferenceable(752) %0, i32 %1, i32 noundef %2) #2 {
  %4 = alloca %"struct.Luau::CodeGen::IrOp", align 4
  %5 = alloca ptr, align 8
  %6 = alloca i32, align 4
  %7 = alloca %"struct.Luau::CodeGen::IrOp", align 4
  %8 = alloca %"struct.Luau::CodeGen::IrOp", align 4
  %9 = getelementptr inbounds nuw %"struct.Luau::CodeGen::IrOp", ptr %4, i32 0, i32 0
  store i32 %1, ptr %9, align 4
  store ptr %0, ptr %5, align 8, !tbaa !20
  store i32 %2, ptr %6, align 4, !tbaa !22
  %10 = load i32, ptr %4, align 4
  %11 = and i32 %10, 15
  %12 = icmp eq i32 %11, 2
  br i1 %12, label %13, label %14

13:                                               ; preds = %3
  br label %24

14:                                               ; preds = %3
  %15 = load ptr, ptr %5, align 8, !tbaa !20
  call void @llvm.memcpy.p0.p0.i64(ptr align 4 %7, ptr align 4 %4, i64 4, i1 false), !tbaa.struct !28
  %16 = load ptr, ptr %5, align 8, !tbaa !20
  %17 = load i32, ptr %6, align 4, !tbaa !22
  %18 = call i32 @_ZN4Luau7CodeGen9IrBuilder6vmExitEj(ptr noundef nonnull align 8 dereferenceable(752) %16, i32 noundef %17)
  %19 = getelementptr inbounds nuw %"struct.Luau::CodeGen::IrOp", ptr %8, i32 0, i32 0
  store i32 %18, ptr %19, align 4
  %20 = getelementptr inbounds nuw %"struct.Luau::CodeGen::IrOp", ptr %7, i32 0, i32 0
  %21 = load i32, ptr %20, align 4
  %22 = getelementptr inbounds nuw %"struct.Luau::CodeGen::IrOp", ptr %8, i32 0, i32 0
  %23 = load i32, ptr %22, align 4
  call void @_ZN4Luau7CodeGen9IrBuilder15loadAndCheckTagENS0_4IrOpEhS2_(ptr noundef nonnull align 8 dereferenceable(752) %15, i32 %21, i8 noundef zeroext 3, i32 %23)
  br label %24

24:                                               ; preds = %14, %13
  ret void
}

; Function Attrs: mustprogress uwtable
define internal i64 @_ZN4Luau7CodeGenL26translateBuiltinMathDegRadERNS0_9IrBuilderENS0_5IrCmdEiiiNS0_4IrOpEii(ptr noundef nonnull align 8 dereferenceable(752) %0, i8 noundef zeroext %1, i32 noundef %2, i32 noundef %3, i32 noundef %4, i32 %5, i32 noundef %6, i32 noundef %7) #2 {
  %9 = alloca %"struct.Luau::CodeGen::BuiltinImplResult", align 4
  %10 = alloca %"struct.Luau::CodeGen::IrOp", align 4
  %11 = alloca ptr, align 8
  %12 = alloca i8, align 1
  %13 = alloca i32, align 4
  %14 = alloca i32, align 4
  %15 = alloca i32, align 4
  %16 = alloca i32, align 4
  %17 = alloca i32, align 4
  %18 = alloca %"struct.Luau::CodeGen::IrOp", align 4
  %19 = alloca double, align 8
  %20 = alloca %"struct.Luau::CodeGen::IrOp", align 4
  %21 = alloca %"struct.Luau::CodeGen::IrOp", align 4
  %22 = alloca %"struct.Luau::CodeGen::IrOp", align 4
  %23 = alloca %"struct.Luau::CodeGen::IrOp", align 4
  %24 = alloca %"struct.Luau::CodeGen::IrOp", align 4
  %25 = alloca %"struct.Luau::CodeGen::IrOp", align 4
  %26 = alloca %"struct.Luau::CodeGen::IrOp", align 4
  %27 = alloca %"struct.Luau::CodeGen::IrOp", align 4
  %28 = alloca %"struct.Luau::CodeGen::IrOp", align 4
  %29 = alloca %"struct.Luau::CodeGen::IrOp", align 4
  %30 = alloca %"struct.Luau::CodeGen::IrOp", align 4
  %31 = getelementptr inbounds nuw %"struct.Luau::CodeGen::IrOp", ptr %10, i32 0, i32 0
  store i32 %5, ptr %31, align 4
  store ptr %0, ptr %11, align 8, !tbaa !20
  store i8 %1, ptr %12, align 1, !tbaa !32
  store i32 %2, ptr %13, align 4, !tbaa !22
  store i32 %3, ptr %14, align 4, !tbaa !22
  store i32 %4, ptr %15, align 4, !tbaa !22
  store i32 %6, ptr %16, align 4, !tbaa !22
  store i32 %7, ptr %17, align 4, !tbaa !22
  %32 = load i32, ptr %13, align 4, !tbaa !22
  %33 = icmp slt i32 %32, 1
  br i1 %33, label %37, label %34

34:                                               ; preds = %8
  %35 = load i32, ptr %16, align 4, !tbaa !22
  %36 = icmp sgt i32 %35, 1
  br i1 %36, label %37, label %40

37:                                               ; preds = %34, %8
  %38 = getelementptr inbounds nuw %"struct.Luau::CodeGen::BuiltinImplResult", ptr %9, i32 0, i32 0
  store i32 0, ptr %38, align 4, !tbaa !24
  %39 = getelementptr inbounds nuw %"struct.Luau::CodeGen::BuiltinImplResult", ptr %9, i32 0, i32 1
  store i32 -1, ptr %39, align 4, !tbaa !27
  br label %105

40:                                               ; preds = %34
  %41 = load ptr, ptr %11, align 8, !tbaa !20
  %42 = load ptr, ptr %11, align 8, !tbaa !20
  %43 = load i32, ptr %15, align 4, !tbaa !22
  %44 = trunc i32 %43 to i8
  %45 = call i32 @_ZN4Luau7CodeGen9IrBuilder5vmRegEh(ptr noundef nonnull align 8 dereferenceable(752) %42, i8 noundef zeroext %44)
  %46 = getelementptr inbounds nuw %"struct.Luau::CodeGen::IrOp", ptr %18, i32 0, i32 0
  store i32 %45, ptr %46, align 4
  %47 = load i32, ptr %17, align 4, !tbaa !22
  %48 = getelementptr inbounds nuw %"struct.Luau::CodeGen::IrOp", ptr %18, i32 0, i32 0
  %49 = load i32, ptr %48, align 4
  call void @_ZN4Luau7CodeGenL18builtinCheckDoubleERNS0_9IrBuilderENS0_4IrOpEi(ptr noundef nonnull align 8 dereferenceable(752) %41, i32 %49, i32 noundef %47)
  call void @llvm.lifetime.start.p0(i64 8, ptr %19) #11
  store double 0x3F91DF46A2529D39, ptr %19, align 8, !tbaa !34
  call void @llvm.lifetime.start.p0(i64 4, ptr %20) #11
  %50 = load ptr, ptr %11, align 8, !tbaa !20
  %51 = load ptr, ptr %11, align 8, !tbaa !20
  %52 = load i32, ptr %15, align 4, !tbaa !22
  %53 = trunc i32 %52 to i8
  %54 = call i32 @_ZN4Luau7CodeGen9IrBuilder5vmRegEh(ptr noundef nonnull align 8 dereferenceable(752) %51, i8 noundef zeroext %53)
  %55 = getelementptr inbounds nuw %"struct.Luau::CodeGen::IrOp", ptr %21, i32 0, i32 0
  store i32 %54, ptr %55, align 4
  %56 = getelementptr inbounds nuw %"struct.Luau::CodeGen::IrOp", ptr %21, i32 0, i32 0
  %57 = load i32, ptr %56, align 4
  %58 = call i32 @_ZN4Luau7CodeGenL17builtinLoadDoubleERNS0_9IrBuilderENS0_4IrOpE(ptr noundef nonnull align 8 dereferenceable(752) %50, i32 %57)
  %59 = getelementptr inbounds nuw %"struct.Luau::CodeGen::IrOp", ptr %20, i32 0, i32 0
  store i32 %58, ptr %59, align 4
  call void @llvm.lifetime.start.p0(i64 4, ptr %22) #11
  %60 = load ptr, ptr %11, align 8, !tbaa !20
  %61 = load i8, ptr %12, align 1, !tbaa !32
  call void @llvm.memcpy.p0.p0.i64(ptr align 4 %23, ptr align 4 %20, i64 4, i1 false), !tbaa.struct !28
  %62 = load ptr, ptr %11, align 8, !tbaa !20
  %63 = call i32 @_ZN4Luau7CodeGen9IrBuilder11constDoubleEd(ptr noundef nonnull align 8 dereferenceable(752) %62, double noundef 0x3F91DF46A2529D39)
  %64 = getelementptr inbounds nuw %"struct.Luau::CodeGen::IrOp", ptr %24, i32 0, i32 0
  store i32 %63, ptr %64, align 4
  %65 = getelementptr inbounds nuw %"struct.Luau::CodeGen::IrOp", ptr %23, i32 0, i32 0
  %66 = load i32, ptr %65, align 4
  %67 = getelementptr inbounds nuw %"struct.Luau::CodeGen::IrOp", ptr %24, i32 0, i32 0
  %68 = load i32, ptr %67, align 4
  %69 = call i32 @_ZN4Luau7CodeGen9IrBuilder4instENS0_5IrCmdENS0_4IrOpES3_(ptr noundef nonnull align 8 dereferenceable(752) %60, i8 noundef zeroext %61, i32 %66, i32 %68)
  %70 = getelementptr inbounds nuw %"struct.Luau::CodeGen::IrOp", ptr %22, i32 0, i32 0
  store i32 %69, ptr %70, align 4
  %71 = load ptr, ptr %11, align 8, !tbaa !20
  %72 = load ptr, ptr %11, align 8, !tbaa !20
  %73 = load i32, ptr %14, align 4, !tbaa !22
  %74 = trunc i32 %73 to i8
  %75 = call i32 @_ZN4Luau7CodeGen9IrBuilder5vmRegEh(ptr noundef nonnull align 8 dereferenceable(752) %72, i8 noundef zeroext %74)
  %76 = getelementptr inbounds nuw %"struct.Luau::CodeGen::IrOp", ptr %25, i32 0, i32 0
  store i32 %75, ptr %76, align 4
  call void @llvm.memcpy.p0.p0.i64(ptr align 4 %26, ptr align 4 %22, i64 4, i1 false), !tbaa.struct !28
  %77 = getelementptr inbounds nuw %"struct.Luau::CodeGen::IrOp", ptr %25, i32 0, i32 0
  %78 = load i32, ptr %77, align 4
  %79 = getelementptr inbounds nuw %"struct.Luau::CodeGen::IrOp", ptr %26, i32 0, i32 0
  %80 = load i32, ptr %79, align 4
  %81 = call i32 @_ZN4Luau7CodeGen9IrBuilder4instENS0_5IrCmdENS0_4IrOpES3_(ptr noundef nonnull align 8 dereferenceable(752) %71, i8 noundef zeroext 15, i32 %78, i32 %80)
  %82 = getelementptr inbounds nuw %"struct.Luau::CodeGen::IrOp", ptr %27, i32 0, i32 0
  store i32 %81, ptr %82, align 4
  %83 = load i32, ptr %14, align 4, !tbaa !22
  %84 = load i32, ptr %15, align 4, !tbaa !22
  %85 = icmp ne i32 %83, %84
  br i1 %85, label %86, label %102

86:                                               ; preds = %40
  %87 = load ptr, ptr %11, align 8, !tbaa !20
  %88 = load ptr, ptr %11, align 8, !tbaa !20
  %89 = load i32, ptr %14, align 4, !tbaa !22
  %90 = trunc i32 %89 to i8
  %91 = call i32 @_ZN4Luau7CodeGen9IrBuilder5vmRegEh(ptr noundef nonnull align 8 dereferenceable(752) %88, i8 noundef zeroext %90)
  %92 = getelementptr inbounds nuw %"struct.Luau::CodeGen::IrOp", ptr %28, i32 0, i32 0
  store i32 %91, ptr %92, align 4
  %93 = load ptr, ptr %11, align 8, !tbaa !20
  %94 = call i32 @_ZN4Luau7CodeGen9IrBuilder8constTagEh(ptr noundef nonnull align 8 dereferenceable(752) %93, i8 noundef zeroext 3)
  %95 = getelementptr inbounds nuw %"struct.Luau::CodeGen::IrOp", ptr %29, i32 0, i32 0
  store i32 %94, ptr %95, align 4
  %96 = getelementptr inbounds nuw %"struct.Luau::CodeGen::IrOp", ptr %28, i32 0, i32 0
  %97 = load i32, ptr %96, align 4
  %98 = getelementptr inbounds nuw %"struct.Luau::CodeGen::IrOp", ptr %29, i32 0, i32 0
  %99 = load i32, ptr %98, align 4
  %100 = call i32 @_ZN4Luau7CodeGen9IrBuilder4instENS0_5IrCmdENS0_4IrOpES3_(ptr noundef nonnull align 8 dereferenceable(752) %87, i8 noundef zeroext 12, i32 %97, i32 %99)
  %101 = getelementptr inbounds nuw %"struct.Luau::CodeGen::IrOp", ptr %30, i32 0, i32 0
  store i32 %100, ptr %101, align 4
  br label %102

102:                                              ; preds = %86, %40
  %103 = getelementptr inbounds nuw %"struct.Luau::CodeGen::BuiltinImplResult", ptr %9, i32 0, i32 0
  store i32 2, ptr %103, align 4, !tbaa !24
  %104 = getelementptr inbounds nuw %"struct.Luau::CodeGen::BuiltinImplResult", ptr %9, i32 0, i32 1
  store i32 1, ptr %104, align 4, !tbaa !27
  call void @llvm.lifetime.end.p0(i64 4, ptr %22) #11
  call void @llvm.lifetime.end.p0(i64 4, ptr %20) #11
  call void @llvm.lifetime.end.p0(i64 8, ptr %19) #11
  br label %105

105:                                              ; preds = %102, %37
  %106 = load i64, ptr %9, align 4
  ret i64 %106
}